; Function Attrs: mustprogress uwtable
define hidden void @_ZN4cvc58internal6theory11quantifiers16SygusGrammarCons18mkDefaultSygusTypeERKNS0_3EnvERKNS0_8TypeNodeERKNS0_12NodeTemplateILb1EEERKSt6vectorISB_SaISB_EE(ptr dead_on_unwind noalias writable sret(%"class.cvc5::internal::TypeNode") align 8 %0, ptr noundef nonnull align 8 dereferenceable(696) %1, ptr noundef nonnull align 8 dereferenceable(8) %2, ptr noundef nonnull readonly align 8 captures(none) dereferenceable(8) %3, ptr noundef nonnull readonly align 8 captures(none) dereferenceable(24) %4) local_unnamed_addr #3 align 2 personality ptr @__gxx_personality_v0 {
  %6 = alloca %"class.cvc5::internal::SygusGrammar", align 8
  call void @llvm.lifetime.start.p0(i64 112, ptr nonnull %6) #22
  call void @_ZN4cvc58internal6theory11quantifiers16SygusGrammarCons16mkDefaultGrammarERKNS0_3EnvERKNS0_8TypeNodeERKNS0_12NodeTemplateILb1EEERKSt6vectorISB_SaISB_EE(ptr dead_on_unwind nonnull writable sret(%"class.cvc5::internal::SygusGrammar") align 8 %6, ptr noundef nonnull align 8 dereferenceable(696) %1, ptr noundef nonnull align 8 dereferenceable(8) %2, ptr noundef nonnull align 8 dereferenceable(8) %3, ptr noundef nonnull align 8 dereferenceable(24) %4)
  invoke void @_ZN4cvc58internal12SygusGrammar7resolveEb(ptr dead_on_unwind writable sret(%"class.cvc5::internal::TypeNode") align 8 %0, ptr noundef nonnull align 8 dereferenceable(112) %6, i1 noundef zeroext true)
          to label %7 unwind label %8

7:                                                ; preds = %5
  call void @_ZN4cvc58internal12SygusGrammarD2Ev(ptr noundef nonnull align 8 dereferenceable(112) %6) #22
  call void @llvm.lifetime.end.p0(i64 112, ptr nonnull %6) #22
  ret void

8:                                                ; preds = %5
  %9 = landingpad { ptr, i32 }
          cleanup
  call void @_ZN4cvc58internal12SygusGrammarD2Ev(ptr noundef nonnull align 8 dereferenceable(112) %6) #22
  call void @llvm.lifetime.end.p0(i64 112, ptr nonnull %6) #22
  resume { ptr, i32 } %9
}